; Function Attrs: mustprogress nofree nounwind uwtable
define hidden noundef zeroext i1 @_ZN10duckdb_re212re2_internal5ParseIjEEbPKcmPT_i(ptr noundef readonly captures(none) %0, i64 noundef %1, ptr noundef writeonly captures(address_is_null) %2, i32 noundef %3) local_unnamed_addr #16 {
  %5 = alloca i64, align 8
  call void @llvm.lifetime.start.p0(i64 8, ptr nonnull %5) #31
  %6 = call noundef zeroext i1 @_ZN10duckdb_re212re2_internal5ParseImEEbPKcmPT_i(ptr noundef %0, i64 noundef %1, ptr noundef nonnull %5, i32 noundef %3)
  br i1 %6, label %7, label %13

7:                                                ; preds = %4
  %8 = load i64, ptr %5, align 8, !tbaa !37
  %9 = trunc i64 %8 to i32
  %.not = icmp ult i64 %8, 4294967296
  br i1 %.not, label %10, label %13

10:                                               ; preds = %7
  %11 = icmp eq ptr %2, null
  br i1 %11, label %13, label %12

12:                                               ; preds = %10
  store i32 %9, ptr %2, align 4, !tbaa !3
  br label %13

13:                                               ; preds = %10, %7, %4, %12
  %.0 = phi i1 [ true, %12 ], [ false, %4 ], [ false, %7 ], [ true, %10 ]
  call void @llvm.lifetime.end.p0(i64 8, ptr nonnull %5) #31
  ret i1 %.0
}